target datalayout = "e-m:e-p270:32:32-p271:32:32-p272:64:64-i64:64-i128:128-f80:128-n8:16:32:64-S128"
target triple = "x86_64-pc-linux-gnu"

@hf_mbim_ms_wake_reason_wake_type = internal global i32 0, align 4
@hf_mbim_ms_wake_reason_session_id = internal global i32 0, align 4
@ett_mbim_pair_list = internal global i32 0, align 4
@.str.2620 = private unnamed_addr constant [12 x i8] c"Wake Reason\00", align 1

; Function Attrs: nounwind uwtable
define internal void @mbim_dissect_ms_wake_reason(ptr noundef %0, ptr noundef %1, ptr noundef %2, i32 noundef %3) #0 {
  %5 = alloca ptr, align 8
  %6 = alloca ptr, align 8
  %7 = alloca ptr, align 8
  %8 = alloca i32, align 4
  %9 = alloca ptr, align 8
  store ptr %0, ptr %5, align 8
  store ptr %1, ptr %6, align 8
  store ptr %2, ptr %7, align 8
  store i32 %3, ptr %8, align 4
  %10 = load ptr, ptr %7, align 8
  %11 = load i32, ptr @hf_mbim_ms_wake_reason_wake_type, align 4
  %12 = load ptr, ptr %5, align 8
  %13 = load i32, ptr %8, align 4
  %14 = call ptr @proto_tree_add_item(ptr noundef %10, i32 noundef %11, ptr noundef %12, i32 noundef %13, i32 noundef 4, i32 noundef -2147483648)
  %15 = load i32, ptr %8, align 4
  %16 = add i32 %15, 4
  store i32 %16, ptr %8, align 4
  %17 = load ptr, ptr %7, align 8
  %18 = load i32, ptr @hf_mbim_ms_wake_reason_session_id, align 4
  %19 = load ptr, ptr %5, align 8
  %20 = load i32, ptr %8, align 4
  %21 = call ptr @proto_tree_add_item(ptr noundef %17, i32 noundef %18, ptr noundef %19, i32 noundef %20, i32 noundef 4, i32 noundef -2147483648)
  %22 = load i32, ptr %8, align 4
  %23 = add i32 %22, 4
  store i32 %23, ptr %8, align 4
  %24 = load ptr, ptr %7, align 8
  %25 = load ptr, ptr %5, align 8
  %26 = load i32, ptr %8, align 4
  %27 = load i32, ptr @ett_mbim_pair_list, align 4
  %28 = call ptr (ptr, ptr, i32, i32, i32, ptr, ptr, ...) @proto_tree_add_subtree_format(ptr noundef %24, ptr noundef %25, i32 noundef %26, i32 noundef 0, i32 noundef %27, ptr noundef null, ptr noundef @.str.2620)
  store ptr %28, ptr %9, align 8
  %29 = load ptr, ptr %5, align 8
  %30 = load ptr, ptr %6, align 8
  %31 = load ptr, ptr %9, align 8
  call void @mbim_dissect_tlv_ie(ptr noundef %29, ptr noundef %30, ptr noundef %31, ptr noundef %8)
  ret void
}