; Function Attrs: nounwind uwtable
define internal fastcc void @mbim_dissect_ms_wake_reason(ptr noundef %0, ptr noundef %1, ptr noundef %2, i32 noundef %3) unnamed_addr #0 {
  %5 = alloca i32, align 4
  %6 = load i32, ptr @hf_mbim_ms_wake_reason_wake_type, align 4
  %7 = tail call ptr @proto_tree_add_item(ptr noundef %2, i32 noundef %6, ptr noundef %0, i32 noundef %3, i32 noundef 4, i32 noundef -2147483648) #10
  %8 = add i32 %3, 4
  %9 = load i32, ptr @hf_mbim_ms_wake_reason_session_id, align 4
  %10 = tail call ptr @proto_tree_add_item(ptr noundef %2, i32 noundef %9, ptr noundef %0, i32 noundef %8, i32 noundef 4, i32 noundef -2147483648) #10
  %11 = add i32 %3, 8
  store i32 %11, ptr %5, align 4
  %12 = load i32, ptr @ett_mbim_pair_list, align 4
  %13 = tail call ptr (ptr, ptr, i32, i32, i32, ptr, ptr, ...) @proto_tree_add_subtree_format(ptr noundef %2, ptr noundef %0, i32 noundef %11, i32 noundef 0, i32 noundef %12, ptr noundef null, ptr noundef nonnull @.str.2620) #10
  call fastcc void @mbim_dissect_tlv_ie(ptr noundef %0, ptr noundef %1, ptr noundef %13, ptr noundef %5)
  ret void
}